target datalayout = "e-m:e-p270:32:32-p271:32:32-p272:64:64-i64:64-i128:128-f80:128-n8:16:32:64-S128"
target triple = "x86_64-pc-linux-gnu"

%struct.cli_ac_data = type { ptr, i32, i32, i32, ptr, ptr, ptr, ptr, ptr, ptr, [32 x i32], ptr, i32 }
%struct.cli_lsig_matches = type { i32, [1 x ptr] }

; Function Attrs: nounwind uwtable
define void @cli_ac_freedata(ptr noundef %0) #0 {
  %2 = alloca ptr, align 8
  %3 = alloca i32, align 4
  %4 = alloca i32, align 4
  %5 = alloca ptr, align 8
  %6 = alloca i32, align 4
  store ptr %0, ptr %2, align 8, !tbaa !88
  call void @llvm.lifetime.start.p0(i64 4, ptr %3) #16
  %7 = load ptr, ptr %2, align 8, !tbaa !88
  %8 = icmp ne ptr %7, null
  br i1 %8, label %10, label %9

9:                                                ; preds = %1
  store i32 1, ptr %4, align 4
  br label %183

10:                                               ; preds = %1
  %11 = load ptr, ptr %2, align 8, !tbaa !88
  %12 = getelementptr inbounds nuw %struct.cli_ac_data, ptr %11, i32 0, i32 1
  %13 = load i32, ptr %12, align 8, !tbaa !97
  %14 = icmp ne i32 %13, 0
  br i1 %14, label %15, label %60

15:                                               ; preds = %10
  store i32 0, ptr %3, align 4, !tbaa !49
  br label %16

16:                                               ; preds = %49, %15
  %17 = load i32, ptr %3, align 4, !tbaa !49
  %18 = load ptr, ptr %2, align 8, !tbaa !88
  %19 = getelementptr inbounds nuw %struct.cli_ac_data, ptr %18, i32 0, i32 1
  %20 = load i32, ptr %19, align 8, !tbaa !97
  %21 = icmp ult i32 %17, %20
  br i1 %21, label %22, label %52

22:                                               ; preds = %16
  %23 = load ptr, ptr %2, align 8, !tbaa !88
  %24 = getelementptr inbounds nuw %struct.cli_ac_data, ptr %23, i32 0, i32 0
  %25 = load ptr, ptr %24, align 8, !tbaa !98
  %26 = load i32, ptr %3, align 4, !tbaa !49
  %27 = zext i32 %26 to i64
  %28 = getelementptr inbounds nuw ptr, ptr %25, i64 %27
  %29 = load ptr, ptr %28, align 8, !tbaa !118
  %30 = icmp ne ptr %29, null
  br i1 %30, label %31, label %48

31:                                               ; preds = %22
  %32 = load ptr, ptr %2, align 8, !tbaa !88
  %33 = getelementptr inbounds nuw %struct.cli_ac_data, ptr %32, i32 0, i32 0
  %34 = load ptr, ptr %33, align 8, !tbaa !98
  %35 = load i32, ptr %3, align 4, !tbaa !49
  %36 = zext i32 %35 to i64
  %37 = getelementptr inbounds nuw ptr, ptr %34, i64 %36
  %38 = load ptr, ptr %37, align 8, !tbaa !118
  %39 = getelementptr inbounds ptr, ptr %38, i64 0
  %40 = load ptr, ptr %39, align 8, !tbaa !48
  call void @free(ptr noundef %40) #16
  %41 = load ptr, ptr %2, align 8, !tbaa !88
  %42 = getelementptr inbounds nuw %struct.cli_ac_data, ptr %41, i32 0, i32 0
  %43 = load ptr, ptr %42, align 8, !tbaa !98
  %44 = load i32, ptr %3, align 4, !tbaa !49
  %45 = zext i32 %44 to i64
  %46 = getelementptr inbounds nuw ptr, ptr %43, i64 %45
  %47 = load ptr, ptr %46, align 8, !tbaa !118
  call void @free(ptr noundef %47) #16
  br label %48

48:                                               ; preds = %31, %22
  br label %49

49:                                               ; preds = %48
  %50 = load i32, ptr %3, align 4, !tbaa !49
  %51 = add i32 %50, 1
  store i32 %51, ptr %3, align 4, !tbaa !49
  br label %16

52:                                               ; preds = %16
  %53 = load ptr, ptr %2, align 8, !tbaa !88
  %54 = getelementptr inbounds nuw %struct.cli_ac_data, ptr %53, i32 0, i32 0
  %55 = load ptr, ptr %54, align 8, !tbaa !98
  call void @free(ptr noundef %55) #16
  %56 = load ptr, ptr %2, align 8, !tbaa !88
  %57 = getelementptr inbounds nuw %struct.cli_ac_data, ptr %56, i32 0, i32 0
  store ptr null, ptr %57, align 8, !tbaa !98
  %58 = load ptr, ptr %2, align 8, !tbaa !88
  %59 = getelementptr inbounds nuw %struct.cli_ac_data, ptr %58, i32 0, i32 1
  store i32 0, ptr %59, align 8, !tbaa !97
  br label %60

60:                                               ; preds = %52, %10
  %61 = load ptr, ptr %2, align 8, !tbaa !88
  %62 = getelementptr inbounds nuw %struct.cli_ac_data, ptr %61, i32 0, i32 2
  %63 = load i32, ptr %62, align 4, !tbaa !99
  %64 = icmp ne i32 %63, 0
  br i1 %64, label %65, label %171

65:                                               ; preds = %60
  %66 = load ptr, ptr %2, align 8, !tbaa !88
  %67 = getelementptr inbounds nuw %struct.cli_ac_data, ptr %66, i32 0, i32 7
  %68 = load ptr, ptr %67, align 8, !tbaa !102
  %69 = icmp ne ptr %68, null
  br i1 %69, label %70, label %141

70:                                               ; preds = %65
  store i32 0, ptr %3, align 4, !tbaa !49
  br label %71

71:                                               ; preds = %132, %70
  %72 = load i32, ptr %3, align 4, !tbaa !49
  %73 = load ptr, ptr %2, align 8, !tbaa !88
  %74 = getelementptr inbounds nuw %struct.cli_ac_data, ptr %73, i32 0, i32 2
  %75 = load i32, ptr %74, align 4, !tbaa !99
  %76 = icmp ult i32 %72, %75
  br i1 %76, label %77, label %135

77:                                               ; preds = %71
  call void @llvm.lifetime.start.p0(i64 8, ptr %5) #16
  %78 = load ptr, ptr %2, align 8, !tbaa !88
  %79 = getelementptr inbounds nuw %struct.cli_ac_data, ptr %78, i32 0, i32 7
  %80 = load ptr, ptr %79, align 8, !tbaa !102
  %81 = load i32, ptr %3, align 4, !tbaa !49
  %82 = zext i32 %81 to i64
  %83 = getelementptr inbounds nuw ptr, ptr %80, i64 %82
  %84 = load ptr, ptr %83, align 8, !tbaa !119
  store ptr %84, ptr %5, align 8, !tbaa !119
  %85 = icmp ne ptr %84, null
  br i1 %85, label %86, label %131

86:                                               ; preds = %77
  call void @llvm.lifetime.start.p0(i64 4, ptr %6) #16
  store i32 0, ptr %6, align 4, !tbaa !49
  br label %87

87:                                               ; preds = %114, %86
  %88 = load i32, ptr %6, align 4, !tbaa !49
  %89 = load ptr, ptr %5, align 8, !tbaa !119
  %90 = getelementptr inbounds nuw %struct.cli_lsig_matches, ptr %89, i32 0, i32 0
  %91 = load i32, ptr %90, align 8, !tbaa !121
  %92 = icmp ult i32 %88, %91
  br i1 %92, label %93, label %117

93:                                               ; preds = %87
  %94 = load ptr, ptr %5, align 8, !tbaa !119
  %95 = getelementptr inbounds nuw %struct.cli_lsig_matches, ptr %94, i32 0, i32 1
  %96 = load i32, ptr %6, align 4, !tbaa !49
  %97 = zext i32 %96 to i64
  %98 = getelementptr inbounds nuw [1 x ptr], ptr %95, i64 0, i64 %97
  %99 = load ptr, ptr %98, align 8, !tbaa !123
  %100 = icmp ne ptr %99, null
  br i1 %100, label %101, label %113

101:                                              ; preds = %93
  %102 = load ptr, ptr %5, align 8, !tbaa !119
  %103 = getelementptr inbounds nuw %struct.cli_lsig_matches, ptr %102, i32 0, i32 1
  %104 = load i32, ptr %6, align 4, !tbaa !49
  %105 = zext i32 %104 to i64
  %106 = getelementptr inbounds nuw [1 x ptr], ptr %103, i64 0, i64 %105
  %107 = load ptr, ptr %106, align 8, !tbaa !123
  call void @free(ptr noundef %107) #16
  %108 = load ptr, ptr %5, align 8, !tbaa !119
  %109 = getelementptr inbounds nuw %struct.cli_lsig_matches, ptr %108, i32 0, i32 1
  %110 = load i32, ptr %6, align 4, !tbaa !49
  %111 = zext i32 %110 to i64
  %112 = getelementptr inbounds nuw [1 x ptr], ptr %109, i64 0, i64 %111
  store ptr null, ptr %112, align 8, !tbaa !123
  br label %113

113:                                              ; preds = %101, %93
  br label %114

114:                                              ; preds = %113
  %115 = load i32, ptr %6, align 4, !tbaa !49
  %116 = add i32 %115, 1
  store i32 %116, ptr %6, align 4, !tbaa !49
  br label %87

117:                                              ; preds = %87
  %118 = load ptr, ptr %2, align 8, !tbaa !88
  %119 = getelementptr inbounds nuw %struct.cli_ac_data, ptr %118, i32 0, i32 7
  %120 = load ptr, ptr %119, align 8, !tbaa !102
  %121 = load i32, ptr %3, align 4, !tbaa !49
  %122 = zext i32 %121 to i64
  %123 = getelementptr inbounds nuw ptr, ptr %120, i64 %122
  %124 = load ptr, ptr %123, align 8, !tbaa !119
  call void @free(ptr noundef %124) #16
  %125 = load ptr, ptr %2, align 8, !tbaa !88
  %126 = getelementptr inbounds nuw %struct.cli_ac_data, ptr %125, i32 0, i32 7
  %127 = load ptr, ptr %126, align 8, !tbaa !102
  %128 = load i32, ptr %3, align 4, !tbaa !49
  %129 = zext i32 %128 to i64
  %130 = getelementptr inbounds nuw ptr, ptr %127, i64 %129
  store ptr null, ptr %130, align 8, !tbaa !119
  call void @llvm.lifetime.end.p0(i64 4, ptr %6) #16
  br label %131

131:                                              ; preds = %117, %77
  call void @llvm.lifetime.end.p0(i64 8, ptr %5) #16
  br label %132

132:                                              ; preds = %131
  %133 = load i32, ptr %3, align 4, !tbaa !49
  %134 = add i32 %133, 1
  store i32 %134, ptr %3, align 4, !tbaa !49
  br label %71

135:                                              ; preds = %71
  %136 = load ptr, ptr %2, align 8, !tbaa !88
  %137 = getelementptr inbounds nuw %struct.cli_ac_data, ptr %136, i32 0, i32 7
  %138 = load ptr, ptr %137, align 8, !tbaa !102
  call void @free(ptr noundef %138) #16
  %139 = load ptr, ptr %2, align 8, !tbaa !88
  %140 = getelementptr inbounds nuw %struct.cli_ac_data, ptr %139, i32 0, i32 7
  store ptr null, ptr %140, align 8, !tbaa !102
  br label %141

141:                                              ; preds = %135, %65
  %142 = load ptr, ptr %2, align 8, !tbaa !88
  %143 = getelementptr inbounds nuw %struct.cli_ac_data, ptr %142, i32 0, i32 8
  %144 = load ptr, ptr %143, align 8, !tbaa !101
  call void @free(ptr noundef %144) #16
  %145 = load ptr, ptr %2, align 8, !tbaa !88
  %146 = getelementptr inbounds nuw %struct.cli_ac_data, ptr %145, i32 0, i32 4
  %147 = load ptr, ptr %146, align 8, !tbaa !100
  %148 = getelementptr inbounds ptr, ptr %147, i64 0
  %149 = load ptr, ptr %148, align 8, !tbaa !48
  call void @free(ptr noundef %149) #16
  %150 = load ptr, ptr %2, align 8, !tbaa !88
  %151 = getelementptr inbounds nuw %struct.cli_ac_data, ptr %150, i32 0, i32 4
  %152 = load ptr, ptr %151, align 8, !tbaa !100
  call void @free(ptr noundef %152) #16
  %153 = load ptr, ptr %2, align 8, !tbaa !88
  %154 = getelementptr inbounds nuw %struct.cli_ac_data, ptr %153, i32 0, i32 5
  %155 = load ptr, ptr %154, align 8, !tbaa !103
  %156 = getelementptr inbounds ptr, ptr %155, i64 0
  %157 = load ptr, ptr %156, align 8, !tbaa !48
  call void @free(ptr noundef %157) #16
  %158 = load ptr, ptr %2, align 8, !tbaa !88
  %159 = getelementptr inbounds nuw %struct.cli_ac_data, ptr %158, i32 0, i32 5
  %160 = load ptr, ptr %159, align 8, !tbaa !103
  call void @free(ptr noundef %160) #16
  %161 = load ptr, ptr %2, align 8, !tbaa !88
  %162 = getelementptr inbounds nuw %struct.cli_ac_data, ptr %161, i32 0, i32 6
  %163 = load ptr, ptr %162, align 8, !tbaa !104
  %164 = getelementptr inbounds ptr, ptr %163, i64 0
  %165 = load ptr, ptr %164, align 8, !tbaa !48
  call void @free(ptr noundef %165) #16
  %166 = load ptr, ptr %2, align 8, !tbaa !88
  %167 = getelementptr inbounds nuw %struct.cli_ac_data, ptr %166, i32 0, i32 6
  %168 = load ptr, ptr %167, align 8, !tbaa !104
  call void @free(ptr noundef %168) #16
  %169 = load ptr, ptr %2, align 8, !tbaa !88
  %170 = getelementptr inbounds nuw %struct.cli_ac_data, ptr %169, i32 0, i32 2
  store i32 0, ptr %170, align 4, !tbaa !99
  br label %171

171:                                              ; preds = %141, %60
  %172 = load ptr, ptr %2, align 8, !tbaa !88
  %173 = getelementptr inbounds nuw %struct.cli_ac_data, ptr %172, i32 0, i32 3
  %174 = load i32, ptr %173, align 8, !tbaa !90
  %175 = icmp ne i32 %174, 0
  br i1 %175, label %176, label %182

176:                                              ; preds = %171
  %177 = load ptr, ptr %2, align 8, !tbaa !88
  %178 = getelementptr inbounds nuw %struct.cli_ac_data, ptr %177, i32 0, i32 9
  %179 = load ptr, ptr %178, align 8, !tbaa !96
  call void @free(ptr noundef %179) #16
  %180 = load ptr, ptr %2, align 8, !tbaa !88
  %181 = getelementptr inbounds nuw %struct.cli_ac_data, ptr %180, i32 0, i32 3
  store i32 0, ptr %181, align 8, !tbaa !90
  br label %182

182:                                              ; preds = %176, %171
  store i32 0, ptr %4, align 4
  br label %183

183:                                              ; preds = %182, %9
  call void @llvm.lifetime.end.p0(i64 4, ptr %3) #16
  %184 = load i32, ptr %4, align 4
  switch i32 %184, label %186 [
    i32 0, label %185
    i32 1, label %185
  ]

185:                                              ; preds = %183, %183
  ret void

186:                                              ; preds = %183
  unreachable
}