; Function Attrs: nounwind uwtable
define void @cli_ac_freedata(ptr noundef %0) local_unnamed_addr #0 {
  %.not = icmp eq ptr %0, null
  br i1 %.not, label %69, label %2

2:                                                ; preds = %1
  %3 = getelementptr inbounds nuw i8, ptr %0, i64 8
  %4 = load i32, ptr %3, align 8, !tbaa !93
  %.not51 = icmp eq i32 %4, 0
  br i1 %.not51, label %19, label %.lr.ph

.lr.ph:                                           ; preds = %2, %14
  %5 = phi i32 [ %15, %14 ], [ %4, %2 ]
  %indvars.iv = phi i64 [ %indvars.iv.next, %14 ], [ 0, %2 ]
  %6 = load ptr, ptr %0, align 8, !tbaa !94
  %7 = getelementptr inbounds nuw ptr, ptr %6, i64 %indvars.iv
  %8 = load ptr, ptr %7, align 8, !tbaa !112
  %.not57 = icmp eq ptr %8, null
  br i1 %.not57, label %14, label %9

9:                                                ; preds = %.lr.ph
  %10 = load ptr, ptr %8, align 8, !tbaa !54
  tail call void @free(ptr noundef %10) #19
  %11 = load ptr, ptr %0, align 8, !tbaa !94
  %12 = getelementptr inbounds nuw ptr, ptr %11, i64 %indvars.iv
  %13 = load ptr, ptr %12, align 8, !tbaa !112
  tail call void @free(ptr noundef %13) #19
  %.pre = load i32, ptr %3, align 8, !tbaa !93
  br label %14

14:                                               ; preds = %.lr.ph, %9
  %15 = phi i32 [ %5, %.lr.ph ], [ %.pre, %9 ]
  %indvars.iv.next = add nuw nsw i64 %indvars.iv, 1
  %16 = zext i32 %15 to i64
  %17 = icmp samesign ult i64 %indvars.iv.next, %16
  br i1 %17, label %.lr.ph, label %._crit_edge

._crit_edge:                                      ; preds = %14
  %18 = load ptr, ptr %0, align 8, !tbaa !94
  tail call void @free(ptr noundef %18) #19
  store ptr null, ptr %0, align 8, !tbaa !94
  store i32 0, ptr %3, align 8, !tbaa !93
  br label %19

19:                                               ; preds = %._crit_edge, %2
  %20 = getelementptr inbounds nuw i8, ptr %0, i64 12
  %21 = load i32, ptr %20, align 4, !tbaa !95
  %.not52 = icmp eq i32 %21, 0
  br i1 %.not52, label %63, label %22

22:                                               ; preds = %19
  %23 = getelementptr inbounds nuw i8, ptr %0, i64 48
  %24 = load ptr, ptr %23, align 8, !tbaa !98
  %.not53 = icmp eq ptr %24, null
  br i1 %.not53, label %48, label %.lr.ph65

.lr.ph65:                                         ; preds = %22, %43
  %25 = phi i32 [ %44, %43 ], [ %21, %22 ]
  %26 = phi ptr [ %45, %43 ], [ %24, %22 ]
  %indvars.iv74 = phi i64 [ %indvars.iv.next75, %43 ], [ 0, %22 ]
  %27 = getelementptr inbounds nuw ptr, ptr %26, i64 %indvars.iv74
  %28 = load ptr, ptr %27, align 8, !tbaa !113
  %.not55 = icmp eq ptr %28, null
  br i1 %.not55, label %43, label %.preheader

.preheader:                                       ; preds = %.lr.ph65
  %29 = load i32, ptr %28, align 8, !tbaa !115
  %.not69 = icmp eq i32 %29, 0
  br i1 %.not69, label %._crit_edge63, label %.lr.ph62

.lr.ph62:                                         ; preds = %.preheader
  %30 = getelementptr inbounds nuw i8, ptr %28, i64 8
  br label %31

31:                                               ; preds = %.lr.ph62, %36
  %32 = phi i32 [ %29, %.lr.ph62 ], [ %37, %36 ]
  %indvars.iv71 = phi i64 [ 0, %.lr.ph62 ], [ %indvars.iv.next72, %36 ]
  %33 = getelementptr inbounds nuw [1 x ptr], ptr %30, i64 0, i64 %indvars.iv71
  %34 = load ptr, ptr %33, align 8, !tbaa !117
  %.not56 = icmp eq ptr %34, null
  br i1 %.not56, label %36, label %35

35:                                               ; preds = %31
  tail call void @free(ptr noundef nonnull %34) #19
  store ptr null, ptr %33, align 8, !tbaa !117
  %.pre77 = load i32, ptr %28, align 8, !tbaa !115
  br label %36

36:                                               ; preds = %31, %35
  %37 = phi i32 [ %32, %31 ], [ %.pre77, %35 ]
  %indvars.iv.next72 = add nuw nsw i64 %indvars.iv71, 1
  %38 = zext i32 %37 to i64
  %39 = icmp samesign ult i64 %indvars.iv.next72, %38
  br i1 %39, label %31, label %._crit_edge63.loopexit

._crit_edge63.loopexit:                           ; preds = %36
  %.pre78 = load ptr, ptr %23, align 8, !tbaa !98
  %.phi.trans.insert = getelementptr inbounds nuw ptr, ptr %.pre78, i64 %indvars.iv74
  %.pre79 = load ptr, ptr %.phi.trans.insert, align 8, !tbaa !113
  br label %._crit_edge63

._crit_edge63:                                    ; preds = %._crit_edge63.loopexit, %.preheader
  %40 = phi ptr [ %.pre79, %._crit_edge63.loopexit ], [ %28, %.preheader ]
  tail call void @free(ptr noundef %40) #19
  %41 = load ptr, ptr %23, align 8, !tbaa !98
  %42 = getelementptr inbounds nuw ptr, ptr %41, i64 %indvars.iv74
  store ptr null, ptr %42, align 8, !tbaa !113
  %.pre80 = load i32, ptr %20, align 4, !tbaa !95
  br label %43

43:                                               ; preds = %._crit_edge63, %.lr.ph65
  %44 = phi i32 [ %.pre80, %._crit_edge63 ], [ %25, %.lr.ph65 ]
  %45 = phi ptr [ %41, %._crit_edge63 ], [ %26, %.lr.ph65 ]
  %indvars.iv.next75 = add nuw nsw i64 %indvars.iv74, 1
  %46 = zext i32 %44 to i64
  %47 = icmp samesign ult i64 %indvars.iv.next75, %46
  br i1 %47, label %.lr.ph65, label %._crit_edge66

._crit_edge66:                                    ; preds = %43
  tail call void @free(ptr noundef nonnull %45) #19
  store ptr null, ptr %23, align 8, !tbaa !98
  br label %48

48:                                               ; preds = %._crit_edge66, %22
  %49 = getelementptr inbounds nuw i8, ptr %0, i64 56
  %50 = load ptr, ptr %49, align 8, !tbaa !97
  tail call void @free(ptr noundef %50) #19
  %51 = getelementptr inbounds nuw i8, ptr %0, i64 24
  %52 = load ptr, ptr %51, align 8, !tbaa !96
  %53 = load ptr, ptr %52, align 8, !tbaa !54
  tail call void @free(ptr noundef %53) #19
  %54 = load ptr, ptr %51, align 8, !tbaa !96
  tail call void @free(ptr noundef %54) #19
  %55 = getelementptr inbounds nuw i8, ptr %0, i64 32
  %56 = load ptr, ptr %55, align 8, !tbaa !99
  %57 = load ptr, ptr %56, align 8, !tbaa !54
  tail call void @free(ptr noundef %57) #19
  %58 = load ptr, ptr %55, align 8, !tbaa !99
  tail call void @free(ptr noundef %58) #19
  %59 = getelementptr inbounds nuw i8, ptr %0, i64 40
  %60 = load ptr, ptr %59, align 8, !tbaa !100
  %61 = load ptr, ptr %60, align 8, !tbaa !54
  tail call void @free(ptr noundef %61) #19
  %62 = load ptr, ptr %59, align 8, !tbaa !100
  tail call void @free(ptr noundef %62) #19
  store i32 0, ptr %20, align 4, !tbaa !95
  br label %63

63:                                               ; preds = %48, %19
  %64 = getelementptr inbounds nuw i8, ptr %0, i64 16
  %65 = load i32, ptr %64, align 8, !tbaa !86
  %.not54 = icmp eq i32 %65, 0
  br i1 %.not54, label %69, label %66

66:                                               ; preds = %63
  %67 = getelementptr inbounds nuw i8, ptr %0, i64 64
  %68 = load ptr, ptr %67, align 8, !tbaa !92
  tail call void @free(ptr noundef %68) #19
  store i32 0, ptr %64, align 8, !tbaa !86
  br label %69

69:                                               ; preds = %63, %66, %1
  ret void
}